target datalayout = "e-m:e-p270:32:32-p271:32:32-p272:64:64-i64:64-i128:128-f80:128-n8:16:32:64-S128"
target triple = "x86_64-pc-linux-gnu"

%struct.Vec_Wec_t_ = type { i32, i32, ptr }
%struct.Gia_Man_t_ = type { ptr, ptr, i32, i32, i32, i32, ptr, ptr, i32, i32, i32, ptr, ptr, %struct.Vec_Int_t_, %struct.Vec_Int_t_, i32, i32, i32, %struct.Vec_Int_t_, ptr, ptr, ptr, i32, i32, i32, i32, ptr, ptr, ptr, ptr, ptr, i32, i32, ptr, i32, ptr, ptr, ptr, ptr, ptr, ptr, ptr, ptr, ptr, ptr, ptr, ptr, ptr, ptr, ptr, ptr, ptr, ptr, %struct.Vec_Int_t_, %struct.Vec_Int_t_, ptr, ptr, ptr, ptr, ptr, ptr, ptr, ptr, ptr, ptr, ptr, ptr, ptr, ptr, ptr, ptr, ptr, ptr, ptr, ptr, ptr, i32, float, float, ptr, ptr, i32, ptr, ptr, ptr, ptr, ptr, ptr, ptr, ptr, ptr, ptr, ptr, ptr, ptr, ptr, ptr, i64, i64, ptr, ptr, i32, i32, i32, i32, i32, i32, i32, i32, i32, i32, i32, i32, ptr, ptr, ptr, ptr, ptr, ptr, ptr, ptr, i32, i32, i32, ptr, i32, i32, ptr, ptr, ptr, ptr, ptr, ptr, i32, i32, ptr, %struct.Vec_Int_t_, %struct.Vec_Int_t_, %struct.Vec_Int_t_, ptr, ptr, ptr, i32, i32, i32, i32, ptr, ptr, ptr, ptr, ptr }
%struct.Vec_Int_t_ = type { i32, i32, ptr }
%struct.Spl_Man_t_ = type { ptr, i32, i32, i32, ptr, ptr, ptr, ptr, ptr, ptr, ptr, ptr, ptr, ptr, ptr }
%struct.Vec_Bit_t_ = type { i32, i32, ptr }

; Function Attrs: inlinehint nounwind uwtable
define internal ptr @Vec_WecEntry(ptr noundef %0, i32 noundef %1) #2 {
  %3 = alloca ptr, align 8
  %4 = alloca i32, align 4
  store ptr %0, ptr %3, align 8, !tbaa !8
  store i32 %1, ptr %4, align 4, !tbaa !10
  %5 = load ptr, ptr %3, align 8, !tbaa !8
  %6 = getelementptr inbounds nuw %struct.Vec_Wec_t_, ptr %5, i32 0, i32 2
  %7 = load ptr, ptr %6, align 8, !tbaa !46
  %8 = load i32, ptr %4, align 4, !tbaa !10
  %9 = sext i32 %8 to i64
  %10 = getelementptr inbounds %struct.Vec_Int_t_, ptr %7, i64 %9
  ret ptr %10
}

; Function Attrs: inlinehint nounwind uwtable
define internal i32 @Vec_BitEntry(ptr noundef %0, i32 noundef %1) #2 {
  %3 = alloca ptr, align 8
  %4 = alloca i32, align 4
  store ptr %0, ptr %3, align 8, !tbaa !70
  store i32 %1, ptr %4, align 4, !tbaa !10
  %5 = load ptr, ptr %3, align 8, !tbaa !70
  %6 = getelementptr inbounds nuw %struct.Vec_Bit_t_, ptr %5, i32 0, i32 2
  %7 = load ptr, ptr %6, align 8, !tbaa !73
  %8 = load i32, ptr %4, align 4, !tbaa !10
  %9 = ashr i32 %8, 5
  %10 = sext i32 %9 to i64
  %11 = getelementptr inbounds i32, ptr %7, i64 %10
  %12 = load i32, ptr %11, align 4, !tbaa !10
  %13 = load i32, ptr %4, align 4, !tbaa !10
  %14 = and i32 %13, 31
  %15 = ashr i32 %12, %14
  %16 = and i32 %15, 1
  ret i32 %16
}

; Function Attrs: inlinehint nounwind uwtable
define internal ptr @Gia_ObjLutFanins2(ptr noundef %0, i32 noundef %1) #2 {
  %3 = alloca ptr, align 8
  %4 = alloca i32, align 4
  store ptr %0, ptr %3, align 8, !tbaa !3
  store i32 %1, ptr %4, align 4, !tbaa !10
  %5 = load ptr, ptr %3, align 8, !tbaa !3
  %6 = getelementptr inbounds nuw %struct.Gia_Man_t_, ptr %5, i32 0, i32 38
  %7 = load ptr, ptr %6, align 8, !tbaa !69
  %8 = load i32, ptr %4, align 4, !tbaa !10
  %9 = call ptr @Vec_WecEntry(ptr noundef %7, i32 noundef %8)
  ret ptr %9
}

; Function Attrs: nounwind uwtable
define i32 @Spl_ManCountMarkedFanins(ptr noundef %0, i32 noundef %1, ptr noundef %2) #0 {
  %4 = alloca ptr, align 8
  %5 = alloca i32, align 4
  %6 = alloca ptr, align 8
  %7 = alloca i32, align 4
  %8 = alloca i32, align 4
  %9 = alloca i32, align 4
  %10 = alloca ptr, align 8
  store ptr %0, ptr %4, align 8, !tbaa !3
  store i32 %1, ptr %5, align 4, !tbaa !10
  store ptr %2, ptr %6, align 8, !tbaa !70
  call void @llvm.lifetime.start.p0(i64 4, ptr %7) #9
  call void @llvm.lifetime.start.p0(i64 4, ptr %8) #9
  call void @llvm.lifetime.start.p0(i64 4, ptr %9) #9
  store i32 0, ptr %9, align 4, !tbaa !10
  call void @llvm.lifetime.start.p0(i64 8, ptr %10) #9
  %11 = load ptr, ptr %4, align 8, !tbaa !3
  %12 = load i32, ptr %5, align 4, !tbaa !10
  %13 = call ptr @Gia_ObjLutFanins2(ptr noundef %11, i32 noundef %12)
  store ptr %13, ptr %10, align 8, !tbaa !37
  store i32 0, ptr %7, align 4, !tbaa !10
  br label %14

14:                                               ; preds = %34, %3
  %15 = load i32, ptr %7, align 4, !tbaa !10
  %16 = load ptr, ptr %10, align 8, !tbaa !37
  %17 = call i32 @Vec_IntSize(ptr noundef %16)
  %18 = icmp slt i32 %15, %17
  br i1 %18, label %19, label %23

19:                                               ; preds = %14
  %20 = load ptr, ptr %10, align 8, !tbaa !37
  %21 = load i32, ptr %7, align 4, !tbaa !10
  %22 = call i32 @Vec_IntEntry(ptr noundef %20, i32 noundef %21)
  store i32 %22, ptr %8, align 4, !tbaa !10
  br label %23

23:                                               ; preds = %19, %14
  %24 = phi i1 [ false, %14 ], [ true, %19 ]
  br i1 %24, label %25, label %37

25:                                               ; preds = %23
  %26 = load ptr, ptr %6, align 8, !tbaa !70
  %27 = load i32, ptr %8, align 4, !tbaa !10
  %28 = call i32 @Vec_BitEntry(ptr noundef %26, i32 noundef %27)
  %29 = icmp ne i32 %28, 0
  br i1 %29, label %30, label %33

30:                                               ; preds = %25
  %31 = load i32, ptr %9, align 4, !tbaa !10
  %32 = add nsw i32 %31, 1
  store i32 %32, ptr %9, align 4, !tbaa !10
  br label %33

33:                                               ; preds = %30, %25
  br label %34

34:                                               ; preds = %33
  %35 = load i32, ptr %7, align 4, !tbaa !10
  %36 = add nsw i32 %35, 1
  store i32 %36, ptr %7, align 4, !tbaa !10
  br label %14, !llvm.loop !93

37:                                               ; preds = %23
  %38 = load i32, ptr %9, align 4, !tbaa !10
  call void @llvm.lifetime.end.p0(i64 8, ptr %10) #9
  call void @llvm.lifetime.end.p0(i64 4, ptr %9) #9
  call void @llvm.lifetime.end.p0(i64 4, ptr %8) #9
  call void @llvm.lifetime.end.p0(i64 4, ptr %7) #9
  ret i32 %38
}

; Function Attrs: inlinehint nounwind uwtable
define internal void @Vec_BitWriteEntry(ptr noundef %0, i32 noundef %1, i32 noundef %2) #2 {
  %4 = alloca ptr, align 8
  %5 = alloca i32, align 4
  %6 = alloca i32, align 4
  store ptr %0, ptr %4, align 8, !tbaa !70
  store i32 %1, ptr %5, align 4, !tbaa !10
  store i32 %2, ptr %6, align 4, !tbaa !10
  %7 = load i32, ptr %6, align 4, !tbaa !10
  %8 = icmp eq i32 %7, 1
  br i1 %8, label %9, label %22

9:                                                ; preds = %3
  %10 = load i32, ptr %5, align 4, !tbaa !10
  %11 = and i32 %10, 31
  %12 = shl i32 1, %11
  %13 = load ptr, ptr %4, align 8, !tbaa !70
  %14 = getelementptr inbounds nuw %struct.Vec_Bit_t_, ptr %13, i32 0, i32 2
  %15 = load ptr, ptr %14, align 8, !tbaa !73
  %16 = load i32, ptr %5, align 4, !tbaa !10
  %17 = ashr i32 %16, 5
  %18 = sext i32 %17 to i64
  %19 = getelementptr inbounds i32, ptr %15, i64 %18
  %20 = load i32, ptr %19, align 4, !tbaa !10
  %21 = or i32 %20, %12
  store i32 %21, ptr %19, align 4, !tbaa !10
  br label %41

22:                                               ; preds = %3
  %23 = load i32, ptr %6, align 4, !tbaa !10
  %24 = icmp eq i32 %23, 0
  br i1 %24, label %25, label %39

25:                                               ; preds = %22
  %26 = load i32, ptr %5, align 4, !tbaa !10
  %27 = and i32 %26, 31
  %28 = shl i32 1, %27
  %29 = xor i32 %28, -1
  %30 = load ptr, ptr %4, align 8, !tbaa !70
  %31 = getelementptr inbounds nuw %struct.Vec_Bit_t_, ptr %30, i32 0, i32 2
  %32 = load ptr, ptr %31, align 8, !tbaa !73
  %33 = load i32, ptr %5, align 4, !tbaa !10
  %34 = ashr i32 %33, 5
  %35 = sext i32 %34 to i64
  %36 = getelementptr inbounds i32, ptr %32, i64 %35
  %37 = load i32, ptr %36, align 4, !tbaa !10
  %38 = and i32 %37, %29
  store i32 %38, ptr %36, align 4, !tbaa !10
  br label %40

39:                                               ; preds = %22
  br label %40

40:                                               ; preds = %39, %25
  br label %41

41:                                               ; preds = %40, %9
  ret void
}

; Function Attrs: inlinehint nounwind uwtable
define internal i32 @Vec_IntEntry(ptr noundef %0, i32 noundef %1) #2 {
  %3 = alloca ptr, align 8
  %4 = alloca i32, align 4
  store ptr %0, ptr %3, align 8, !tbaa !37
  store i32 %1, ptr %4, align 4, !tbaa !10
  %5 = load ptr, ptr %3, align 8, !tbaa !37
  %6 = getelementptr inbounds nuw %struct.Vec_Int_t_, ptr %5, i32 0, i32 2
  %7 = load ptr, ptr %6, align 8, !tbaa !42
  %8 = load i32, ptr %4, align 4, !tbaa !10
  %9 = sext i32 %8 to i64
  %10 = getelementptr inbounds i32, ptr %7, i64 %9
  %11 = load i32, ptr %10, align 4, !tbaa !10
  ret i32 %11
}

; Function Attrs: inlinehint nounwind uwtable
define internal i32 @Vec_IntSize(ptr noundef %0) #2 {
  %2 = alloca ptr, align 8
  store ptr %0, ptr %2, align 8, !tbaa !37
  %3 = load ptr, ptr %2, align 8, !tbaa !37
  %4 = getelementptr inbounds nuw %struct.Vec_Int_t_, ptr %3, i32 0, i32 1
  %5 = load i32, ptr %4, align 4, !tbaa !40
  ret i32 %5
}

; Function Attrs: nounwind uwtable
define i32 @Spl_ManFindGoodCand(ptr noundef %0) #0 {
  %2 = alloca ptr, align 8
  %3 = alloca i32, align 4
  %4 = alloca i32, align 4
  %5 = alloca i32, align 4
  %6 = alloca i32, align 4
  %7 = alloca i32, align 4
  store ptr %0, ptr %2, align 8, !tbaa !47
  call void @llvm.lifetime.start.p0(i64 4, ptr %3) #9
  call void @llvm.lifetime.start.p0(i64 4, ptr %4) #9
  call void @llvm.lifetime.start.p0(i64 4, ptr %5) #9
  store i32 0, ptr %5, align 4, !tbaa !10
  call void @llvm.lifetime.start.p0(i64 4, ptr %6) #9
  call void @llvm.lifetime.start.p0(i64 4, ptr %7) #9
  store i32 -1, ptr %7, align 4, !tbaa !10
  store i32 0, ptr %3, align 4, !tbaa !10
  br label %8

8:                                                ; preds = %28, %1
  %9 = load i32, ptr %3, align 4, !tbaa !10
  %10 = load ptr, ptr %2, align 8, !tbaa !47
  %11 = getelementptr inbounds nuw %struct.Spl_Man_t_, ptr %10, i32 0, i32 14
  %12 = load ptr, ptr %11, align 8, !tbaa !63
  %13 = call i32 @Vec_IntSize(ptr noundef %12)
  %14 = icmp slt i32 %9, %13
  br i1 %14, label %15, label %21

15:                                               ; preds = %8
  %16 = load ptr, ptr %2, align 8, !tbaa !47
  %17 = getelementptr inbounds nuw %struct.Spl_Man_t_, ptr %16, i32 0, i32 14
  %18 = load ptr, ptr %17, align 8, !tbaa !63
  %19 = load i32, ptr %3, align 4, !tbaa !10
  %20 = call i32 @Vec_IntEntry(ptr noundef %18, i32 noundef %19)
  store i32 %20, ptr %4, align 4, !tbaa !10
  br label %21

21:                                               ; preds = %15, %8
  %22 = phi i1 [ false, %8 ], [ true, %15 ]
  br i1 %22, label %23, label %31

23:                                               ; preds = %21
  %24 = load ptr, ptr %2, align 8, !tbaa !47
  %25 = getelementptr inbounds nuw %struct.Spl_Man_t_, ptr %24, i32 0, i32 5
  %26 = load ptr, ptr %25, align 8, !tbaa !54
  %27 = load i32, ptr %4, align 4, !tbaa !10
  call void @Vec_BitWriteEntry(ptr noundef %26, i32 noundef %27, i32 noundef 1)
  br label %28

28:                                               ; preds = %23
  %29 = load i32, ptr %3, align 4, !tbaa !10
  %30 = add nsw i32 %29, 1
  store i32 %30, ptr %3, align 4, !tbaa !10
  br label %8, !llvm.loop !94

31:                                               ; preds = %21
  store i32 0, ptr %3, align 4, !tbaa !10
  br label %32

32:                                               ; preds = %63, %31
  %33 = load i32, ptr %3, align 4, !tbaa !10
  %34 = load ptr, ptr %2, align 8, !tbaa !47
  %35 = getelementptr inbounds nuw %struct.Spl_Man_t_, ptr %34, i32 0, i32 13
  %36 = load ptr, ptr %35, align 8, !tbaa !62
  %37 = call i32 @Vec_IntSize(ptr noundef %36)
  %38 = icmp slt i32 %33, %37
  br i1 %38, label %39, label %45

39:                                               ; preds = %32
  %40 = load ptr, ptr %2, align 8, !tbaa !47
  %41 = getelementptr inbounds nuw %struct.Spl_Man_t_, ptr %40, i32 0, i32 13
  %42 = load ptr, ptr %41, align 8, !tbaa !62
  %43 = load i32, ptr %3, align 4, !tbaa !10
  %44 = call i32 @Vec_IntEntry(ptr noundef %42, i32 noundef %43)
  store i32 %44, ptr %4, align 4, !tbaa !10
  br label %45

45:                                               ; preds = %39, %32
  %46 = phi i1 [ false, %32 ], [ true, %39 ]
  br i1 %46, label %47, label %66

47:                                               ; preds = %45
  %48 = load ptr, ptr %2, align 8, !tbaa !47
  %49 = getelementptr inbounds nuw %struct.Spl_Man_t_, ptr %48, i32 0, i32 0
  %50 = load ptr, ptr %49, align 8, !tbaa !49
  %51 = load i32, ptr %4, align 4, !tbaa !10
  %52 = load ptr, ptr %2, align 8, !tbaa !47
  %53 = getelementptr inbounds nuw %struct.Spl_Man_t_, ptr %52, i32 0, i32 5
  %54 = load ptr, ptr %53, align 8, !tbaa !54
  %55 = call i32 @Spl_ManCountMarkedFanins(ptr noundef %50, i32 noundef %51, ptr noundef %54)
  store i32 %55, ptr %6, align 4, !tbaa !10
  %56 = load i32, ptr %7, align 4, !tbaa !10
  %57 = load i32, ptr %6, align 4, !tbaa !10
  %58 = icmp slt i32 %56, %57
  br i1 %58, label %59, label %62

59:                                               ; preds = %47
  %60 = load i32, ptr %6, align 4, !tbaa !10
  store i32 %60, ptr %7, align 4, !tbaa !10
  %61 = load i32, ptr %4, align 4, !tbaa !10
  store i32 %61, ptr %5, align 4, !tbaa !10
  br label %62

62:                                               ; preds = %59, %47
  br label %63

63:                                               ; preds = %62
  %64 = load i32, ptr %3, align 4, !tbaa !10
  %65 = add nsw i32 %64, 1
  store i32 %65, ptr %3, align 4, !tbaa !10
  br label %32, !llvm.loop !95

66:                                               ; preds = %45
  store i32 0, ptr %3, align 4, !tbaa !10
  br label %67

67:                                               ; preds = %87, %66
  %68 = load i32, ptr %3, align 4, !tbaa !10
  %69 = load ptr, ptr %2, align 8, !tbaa !47
  %70 = getelementptr inbounds nuw %struct.Spl_Man_t_, ptr %69, i32 0, i32 14
  %71 = load ptr, ptr %70, align 8, !tbaa !63
  %72 = call i32 @Vec_IntSize(ptr noundef %71)
  %73 = icmp slt i32 %68, %72
  br i1 %73, label %74, label %80

74:                                               ; preds = %67
  %75 = load ptr, ptr %2, align 8, !tbaa !47
  %76 = getelementptr inbounds nuw %struct.Spl_Man_t_, ptr %75, i32 0, i32 14
  %77 = load ptr, ptr %76, align 8, !tbaa !63
  %78 = load i32, ptr %3, align 4, !tbaa !10
  %79 = call i32 @Vec_IntEntry(ptr noundef %77, i32 noundef %78)
  store i32 %79, ptr %4, align 4, !tbaa !10
  br label %80

80:                                               ; preds = %74, %67
  %81 = phi i1 [ false, %67 ], [ true, %74 ]
  br i1 %81, label %82, label %90

82:                                               ; preds = %80
  %83 = load ptr, ptr %2, align 8, !tbaa !47
  %84 = getelementptr inbounds nuw %struct.Spl_Man_t_, ptr %83, i32 0, i32 5
  %85 = load ptr, ptr %84, align 8, !tbaa !54
  %86 = load i32, ptr %4, align 4, !tbaa !10
  call void @Vec_BitWriteEntry(ptr noundef %85, i32 noundef %86, i32 noundef 0)
  br label %87

87:                                               ; preds = %82
  %88 = load i32, ptr %3, align 4, !tbaa !10
  %89 = add nsw i32 %88, 1
  store i32 %89, ptr %3, align 4, !tbaa !10
  br label %67, !llvm.loop !96

90:                                               ; preds = %80
  %91 = load i32, ptr %5, align 4, !tbaa !10
  call void @llvm.lifetime.end.p0(i64 4, ptr %7) #9
  call void @llvm.lifetime.end.p0(i64 4, ptr %6) #9
  call void @llvm.lifetime.end.p0(i64 4, ptr %5) #9
  call void @llvm.lifetime.end.p0(i64 4, ptr %4) #9
  call void @llvm.lifetime.end.p0(i64 4, ptr %3) #9
  ret i32 %91
}