; Function Attrs: nofree norecurse nosync nounwind memory(readwrite, inaccessiblemem: none) uwtable
define i32 @Spl_ManFindGoodCand(ptr noundef readonly captures(none) %0) local_unnamed_addr #6 {
  %2 = getelementptr inbounds nuw i8, ptr %0, i64 104
  %3 = load ptr, ptr %2, align 8, !tbaa !62
  %4 = getelementptr i8, ptr %3, i64 4
  %.val4043 = load i32, ptr %4, align 4, !tbaa !35
  %5 = icmp sgt i32 %.val4043, 0
  br i1 %5, label %.lr.ph, label %.critedge.preheader

.lr.ph:                                           ; preds = %1
  %6 = getelementptr i8, ptr %3, i64 8
  %.val37 = load ptr, ptr %6, align 8, !tbaa !33
  %7 = getelementptr inbounds nuw i8, ptr %0, i64 32
  %8 = load ptr, ptr %7, align 8, !tbaa !53
  %9 = getelementptr inbounds nuw i8, ptr %8, i64 8
  %10 = load ptr, ptr %9, align 8, !tbaa !50
  br label %21

.critedge.preheader.loopexit:                     ; preds = %21
  %11 = icmp sgt i32 %.val40, 0
  br label %.critedge.preheader

.critedge.preheader:                              ; preds = %.critedge.preheader.loopexit, %1
  %.val3851 = phi i1 [ %11, %.critedge.preheader.loopexit ], [ false, %1 ]
  %12 = getelementptr inbounds nuw i8, ptr %0, i64 96
  %13 = load ptr, ptr %12, align 8, !tbaa !61
  %14 = getelementptr i8, ptr %13, i64 4
  %.val39 = load i32, ptr %14, align 4, !tbaa !35
  %15 = icmp sgt i32 %.val39, 0
  br i1 %15, label %.lr.ph49, label %.critedge2.preheader

.lr.ph49:                                         ; preds = %.critedge.preheader
  %16 = getelementptr i8, ptr %13, i64 8
  %.val36 = load ptr, ptr %16, align 8, !tbaa !33
  %17 = load ptr, ptr %0, align 8, !tbaa !44
  %18 = getelementptr i8, ptr %17, i64 272
  %.val13.i = load ptr, ptr %18, align 8, !tbaa !68
  %19 = getelementptr i8, ptr %.val13.i, i64 8
  %.val13.val.i = load ptr, ptr %19, align 8, !tbaa !30
  %20 = getelementptr inbounds nuw i8, ptr %0, i64 32
  %wide.trip.count = zext nneg i32 %.val39 to i64
  br label %38

21:                                               ; preds = %.lr.ph, %21
  %indvars.iv = phi i64 [ 0, %.lr.ph ], [ %indvars.iv.next, %21 ]
  %22 = getelementptr inbounds nuw i32, ptr %.val37, i64 %indvars.iv
  %23 = load i32, ptr %22, align 4, !tbaa !34
  %24 = and i32 %23, 31
  %25 = shl nuw i32 1, %24
  %26 = ashr i32 %23, 5
  %27 = sext i32 %26 to i64
  %28 = getelementptr inbounds i32, ptr %10, i64 %27
  %29 = load i32, ptr %28, align 4, !tbaa !34
  %30 = or i32 %29, %25
  store i32 %30, ptr %28, align 4, !tbaa !34
  %indvars.iv.next = add nuw nsw i64 %indvars.iv, 1
  %.val40 = load i32, ptr %4, align 4, !tbaa !35
  %31 = sext i32 %.val40 to i64
  %32 = icmp slt i64 %indvars.iv.next, %31
  br i1 %32, label %21, label %.critedge.preheader.loopexit, !llvm.loop !87

.critedge2.preheader:                             ; preds = %Spl_ManCountMarkedFanins.exit, %.critedge.preheader
  %.032.lcssa = phi i32 [ 0, %.critedge.preheader ], [ %spec.select, %Spl_ManCountMarkedFanins.exit ]
  br i1 %.val3851, label %.lr.ph53, label %.critedge4

.lr.ph53:                                         ; preds = %.critedge2.preheader
  %33 = getelementptr i8, ptr %3, i64 8
  %.val = load ptr, ptr %33, align 8, !tbaa !33
  %34 = getelementptr inbounds nuw i8, ptr %0, i64 32
  %35 = load ptr, ptr %34, align 8, !tbaa !53
  %36 = getelementptr inbounds nuw i8, ptr %35, i64 8
  %37 = load ptr, ptr %36, align 8, !tbaa !50
  br label %.critedge2

38:                                               ; preds = %.lr.ph49, %Spl_ManCountMarkedFanins.exit
  %indvars.iv55 = phi i64 [ 0, %.lr.ph49 ], [ %indvars.iv.next56, %Spl_ManCountMarkedFanins.exit ]
  %.048 = phi i32 [ -1, %.lr.ph49 ], [ %spec.select35, %Spl_ManCountMarkedFanins.exit ]
  %.03246 = phi i32 [ 0, %.lr.ph49 ], [ %spec.select, %Spl_ManCountMarkedFanins.exit ]
  %39 = getelementptr inbounds nuw i32, ptr %.val36, i64 %indvars.iv55
  %40 = load i32, ptr %39, align 4, !tbaa !34
  %41 = sext i32 %40 to i64
  %42 = getelementptr inbounds %struct.Vec_Int_t_, ptr %.val13.val.i, i64 %41
  %43 = getelementptr i8, ptr %42, i64 4
  %.val11.i = load i32, ptr %43, align 4, !tbaa !35
  %44 = icmp sgt i32 %.val11.i, 0
  br i1 %44, label %.lr.ph.i, label %Spl_ManCountMarkedFanins.exit

.lr.ph.i:                                         ; preds = %38
  %45 = load ptr, ptr %20, align 8, !tbaa !53
  %46 = getelementptr i8, ptr %42, i64 8
  %.val.i = load ptr, ptr %46, align 8, !tbaa !33
  %47 = getelementptr i8, ptr %45, i64 8
  %.val12.i = load ptr, ptr %47, align 8, !tbaa !50
  %wide.trip.count.i = zext nneg i32 %.val11.i to i64
  br label %48

48:                                               ; preds = %48, %.lr.ph.i
  %indvars.iv.i = phi i64 [ 0, %.lr.ph.i ], [ %indvars.iv.next.i, %48 ]
  %.01014.i = phi i32 [ 0, %.lr.ph.i ], [ %spec.select.i, %48 ]
  %49 = getelementptr inbounds nuw i32, ptr %.val.i, i64 %indvars.iv.i
  %50 = load i32, ptr %49, align 4, !tbaa !34
  %51 = ashr i32 %50, 5
  %52 = sext i32 %51 to i64
  %53 = getelementptr inbounds i32, ptr %.val12.i, i64 %52
  %54 = load i32, ptr %53, align 4, !tbaa !34
  %55 = and i32 %50, 31
  %56 = lshr i32 %54, %55
  %57 = and i32 %56, 1
  %spec.select.i = add nuw nsw i32 %57, %.01014.i
  %indvars.iv.next.i = add nuw nsw i64 %indvars.iv.i, 1
  %exitcond.not.i = icmp eq i64 %indvars.iv.next.i, %wide.trip.count.i
  br i1 %exitcond.not.i, label %Spl_ManCountMarkedFanins.exit, label %48, !llvm.loop !86

Spl_ManCountMarkedFanins.exit:                    ; preds = %48, %38
  %.010.lcssa.i = phi i32 [ 0, %38 ], [ %spec.select.i, %48 ]
  %58 = icmp slt i32 %.048, %.010.lcssa.i
  %spec.select = select i1 %58, i32 %40, i32 %.03246
  %spec.select35 = tail call i32 @llvm.smax.i32(i32 %.048, i32 %.010.lcssa.i)
  %indvars.iv.next56 = add nuw nsw i64 %indvars.iv55, 1
  %exitcond.not = icmp eq i64 %indvars.iv.next56, %wide.trip.count
  br i1 %exitcond.not, label %.critedge2.preheader, label %38, !llvm.loop !88

.critedge2:                                       ; preds = %.lr.ph53, %.critedge2
  %indvars.iv58 = phi i64 [ 0, %.lr.ph53 ], [ %indvars.iv.next59, %.critedge2 ]
  %59 = getelementptr inbounds nuw i32, ptr %.val, i64 %indvars.iv58
  %60 = load i32, ptr %59, align 4, !tbaa !34
  %61 = and i32 %60, 31
  %62 = shl nuw i32 1, %61
  %63 = xor i32 %62, -1
  %64 = ashr i32 %60, 5
  %65 = sext i32 %64 to i64
  %66 = getelementptr inbounds i32, ptr %37, i64 %65
  %67 = load i32, ptr %66, align 4, !tbaa !34
  %68 = and i32 %67, %63
  store i32 %68, ptr %66, align 4, !tbaa !34
  %indvars.iv.next59 = add nuw nsw i64 %indvars.iv58, 1
  %.val38 = load i32, ptr %4, align 4, !tbaa !35
  %69 = sext i32 %.val38 to i64
  %70 = icmp slt i64 %indvars.iv.next59, %69
  br i1 %70, label %.critedge2, label %.critedge4, !llvm.loop !89

.critedge4:                                       ; preds = %.critedge2, %.critedge2.preheader
  ret i32 %.032.lcssa
}